target datalayout = "e-m:e-p270:32:32-p271:32:32-p272:64:64-i64:64-i128:128-f80:128-n8:16:32:64-S128"
target triple = "x86_64-pc-linux-gnu"

%class.b3AlignedObjectArray.6 = type <{ [4 x i8], i32, i32, [4 x i8], ptr, i8, [7 x i8] }>
%class.b3HashMap.8 = type { %class.b3AlignedObjectArray, %class.b3AlignedObjectArray, %class.b3AlignedObjectArray.6, %class.b3AlignedObjectArray.2 }
%class.b3AlignedObjectArray = type <{ [4 x i8], i32, i32, [4 x i8], ptr, i8, [7 x i8] }>
%class.b3AlignedObjectArray.2 = type <{ [4 x i8], i32, i32, [4 x i8], ptr, i8, [7 x i8] }>
%class.b3HashMap = type { %class.b3AlignedObjectArray, %class.b3AlignedObjectArray, %class.b3AlignedObjectArray.0, %class.b3AlignedObjectArray.2 }
%class.b3AlignedObjectArray.0 = type <{ [4 x i8], i32, i32, [4 x i8], ptr, i8, [7 x i8] }>
%class.b3AlignedObjectArray.4 = type <{ [4 x i8], i32, i32, [4 x i8], ptr, i8, [7 x i8] }>
%"class.bParse::bFile" = type <{ ptr, [7 x i8], i8, ptr, i32, i32, %class.b3HashMap, i32, [4 x i8], ptr, ptr, %class.b3AlignedObjectArray.4, %class.b3AlignedObjectArray.4, %class.b3AlignedObjectArray.6, %class.b3HashMap.8, %class.b3HashMap, i32, [4 x i8] }>
%"class.bParse::bChunkInd" = type { i32, i32, ptr, i32, i32 }
%class.b3HashPtr = type { %union.anon }
%union.anon = type { ptr }

; Function Attrs: mustprogress nounwind uwtable
define linkonce_odr dso_local void @_ZN9b3HashPtrC2EPKv(ptr noundef nonnull align 8 dereferenceable(8) %0, ptr noundef %1) unnamed_addr #5 comdat align 2 {
  %3 = alloca ptr, align 8
  %4 = alloca ptr, align 8
  store ptr %0, ptr %3, align 8, !tbaa !62
  store ptr %1, ptr %4, align 8, !tbaa !64
  %5 = load ptr, ptr %3, align 8
  %6 = getelementptr inbounds nuw %class.b3HashPtr, ptr %5, i32 0, i32 0
  %7 = load ptr, ptr %4, align 8, !tbaa !64
  store ptr %7, ptr %6, align 8, !tbaa !65
  ret void
}

; Function Attrs: mustprogress nounwind uwtable
define linkonce_odr dso_local void @_ZN6bParse9bChunkIndC2Ev(ptr noundef nonnull align 8 dereferenceable(24) %0) unnamed_addr #5 comdat align 2 {
  %2 = alloca ptr, align 8
  store ptr %0, ptr %2, align 8, !tbaa !59
  ret void
}

; Function Attrs: mustprogress uwtable
define dso_local void @_ZN6bParse12b3BulletFile9addStructEPKcPviS3_i(ptr noundef nonnull align 8 dereferenceable(840) %0, ptr noundef %1, ptr noundef %2, i32 noundef %3, ptr noundef %4, i32 noundef %5) #0 align 2 {
  %7 = alloca ptr, align 8
  %8 = alloca ptr, align 8
  %9 = alloca ptr, align 8
  %10 = alloca i32, align 4
  %11 = alloca ptr, align 8
  %12 = alloca i32, align 4
  %13 = alloca %"class.bParse::bChunkInd", align 8
  %14 = alloca ptr, align 8
  %15 = alloca i32, align 4
  %16 = alloca %class.b3HashPtr, align 8
  %17 = alloca ptr, align 8
  store ptr %0, ptr %7, align 8, !tbaa !4
  store ptr %1, ptr %8, align 8, !tbaa !41
  store ptr %2, ptr %9, align 8, !tbaa !64
  store i32 %3, ptr %10, align 4, !tbaa !36
  store ptr %4, ptr %11, align 8, !tbaa !64
  store i32 %5, ptr %12, align 4, !tbaa !36
  %18 = load ptr, ptr %7, align 8
  call void @llvm.lifetime.start.p0(i64 24, ptr %13) #13
  call void @_ZN6bParse9bChunkIndC2Ev(ptr noundef nonnull align 8 dereferenceable(24) %13)
  %19 = load i32, ptr %12, align 4, !tbaa !36
  %20 = getelementptr inbounds nuw %"class.bParse::bChunkInd", ptr %13, i32 0, i32 0
  store i32 %19, ptr %20, align 8, !tbaa !50
  %21 = getelementptr inbounds nuw %"class.bParse::bChunkInd", ptr %13, i32 0, i32 4
  store i32 1, ptr %21, align 4, !tbaa !78
  %22 = load i32, ptr %10, align 4, !tbaa !36
  %23 = getelementptr inbounds nuw %"class.bParse::bChunkInd", ptr %13, i32 0, i32 1
  store i32 %22, ptr %23, align 4, !tbaa !79
  %24 = getelementptr inbounds nuw %"class.bParse::bFile", ptr %18, i32 0, i32 10
  %25 = load ptr, ptr %24, align 8, !tbaa !11
  %26 = load ptr, ptr %8, align 8, !tbaa !41
  %27 = call noundef i32 @_ZN6bParse4bDNA14getReverseTypeEPKc(ptr noundef nonnull align 8 dereferenceable(420) %25, ptr noundef %26)
  %28 = getelementptr inbounds nuw %"class.bParse::bChunkInd", ptr %13, i32 0, i32 3
  store i32 %27, ptr %28, align 8, !tbaa !54
  %29 = load ptr, ptr %11, align 8, !tbaa !64
  %30 = getelementptr inbounds nuw %"class.bParse::bChunkInd", ptr %13, i32 0, i32 2
  store ptr %29, ptr %30, align 8, !tbaa !55
  call void @llvm.lifetime.start.p0(i64 8, ptr %14) #13
  %31 = getelementptr inbounds nuw %"class.bParse::bFile", ptr %18, i32 0, i32 10
  %32 = load ptr, ptr %31, align 8, !tbaa !11
  %33 = getelementptr inbounds nuw %"class.bParse::bChunkInd", ptr %13, i32 0, i32 3
  %34 = load i32, ptr %33, align 8, !tbaa !54
  %35 = call noundef ptr @_ZN6bParse4bDNA9getStructEi(ptr noundef nonnull align 8 dereferenceable(420) %32, i32 noundef %34)
  store ptr %35, ptr %14, align 8, !tbaa !80
  call void @llvm.lifetime.start.p0(i64 4, ptr %15) #13
  %36 = getelementptr inbounds nuw %"class.bParse::bFile", ptr %18, i32 0, i32 10
  %37 = load ptr, ptr %36, align 8, !tbaa !11
  %38 = load ptr, ptr %14, align 8, !tbaa !80
  %39 = getelementptr inbounds i16, ptr %38, i64 0
  %40 = load i16, ptr %39, align 2, !tbaa !82
  %41 = sext i16 %40 to i32
  %42 = call noundef signext i16 @_ZN6bParse4bDNA9getLengthEi(ptr noundef nonnull align 8 dereferenceable(420) %37, i32 noundef %41)
  %43 = sext i16 %42 to i32
  store i32 %43, ptr %15, align 4, !tbaa !36
  %44 = getelementptr inbounds nuw %"class.bParse::bFile", ptr %18, i32 0, i32 6
  call void @llvm.lifetime.start.p0(i64 8, ptr %16) #13
  %45 = getelementptr inbounds nuw %"class.bParse::bChunkInd", ptr %13, i32 0, i32 2
  %46 = load ptr, ptr %45, align 8, !tbaa !55
  call void @_ZN9b3HashPtrC2EPKv(ptr noundef nonnull align 8 dereferenceable(8) %16, ptr noundef %46)
  call void @llvm.lifetime.start.p0(i64 8, ptr %17) #13
  %47 = load ptr, ptr %9, align 8, !tbaa !64
  store ptr %47, ptr %17, align 8, !tbaa !56
  call void @_ZN9b3HashMapI9b3HashPtrPN6bParse13bStructHandleEE6insertERKS0_RKS3_(ptr noundef nonnull align 8 dereferenceable(128) %44, ptr noundef nonnull align 8 dereferenceable(8) %16, ptr noundef nonnull align 8 dereferenceable(8) %17)
  call void @llvm.lifetime.end.p0(i64 8, ptr %17) #13
  call void @llvm.lifetime.end.p0(i64 8, ptr %16) #13
  %48 = getelementptr inbounds nuw %"class.bParse::bFile", ptr %18, i32 0, i32 13
  call void @_ZN20b3AlignedObjectArrayIN6bParse9bChunkIndEE9push_backERKS1_(ptr noundef nonnull align 8 dereferenceable(25) %48, ptr noundef nonnull align 8 dereferenceable(24) %13)
  call void @llvm.lifetime.end.p0(i64 4, ptr %15) #13
  call void @llvm.lifetime.end.p0(i64 8, ptr %14) #13
  call void @llvm.lifetime.end.p0(i64 24, ptr %13) #13
  ret void
}