; Function Attrs: mustprogress uwtable
define dso_local void @_ZN6bParse12b3BulletFile9addStructEPKcPviS3_i(ptr noundef nonnull align 8 dereferenceable(840) %0, ptr noundef %1, ptr noundef %2, i32 noundef %3, ptr noundef %4, i32 noundef %5) local_unnamed_addr #0 align 2 {
  %7 = alloca %"class.bParse::bChunkInd", align 8
  %8 = alloca %class.b3HashPtr, align 8
  %9 = alloca ptr, align 8
  call void @llvm.lifetime.start.p0(i64 24, ptr nonnull %7) #17
  store i32 %5, ptr %7, align 8, !tbaa !51
  %10 = getelementptr inbounds nuw i8, ptr %7, i64 20
  store i32 1, ptr %10, align 4, !tbaa !77
  %11 = getelementptr inbounds nuw i8, ptr %7, i64 4
  store i32 %3, ptr %11, align 4, !tbaa !78
  %12 = getelementptr inbounds nuw i8, ptr %0, i64 176
  %13 = load ptr, ptr %12, align 8, !tbaa !25
  %14 = tail call noundef i32 @_ZN6bParse4bDNA14getReverseTypeEPKc(ptr noundef nonnull align 8 dereferenceable(420) %13, ptr noundef %1)
  %15 = getelementptr inbounds nuw i8, ptr %7, i64 16
  store i32 %14, ptr %15, align 8, !tbaa !53
  %16 = getelementptr inbounds nuw i8, ptr %7, i64 8
  store ptr %4, ptr %16, align 8, !tbaa !54
  %17 = load ptr, ptr %12, align 8, !tbaa !25
  %18 = tail call noundef ptr @_ZN6bParse4bDNA9getStructEi(ptr noundef nonnull align 8 dereferenceable(420) %17, i32 noundef %14)
  %19 = load ptr, ptr %12, align 8, !tbaa !25
  %20 = load i16, ptr %18, align 2, !tbaa !79
  %21 = sext i16 %20 to i32
  %22 = tail call noundef signext i16 @_ZN6bParse4bDNA9getLengthEi(ptr noundef nonnull align 8 dereferenceable(420) %19, i32 noundef %21)
  %23 = getelementptr inbounds nuw i8, ptr %0, i64 32
  call void @llvm.lifetime.start.p0(i64 8, ptr nonnull %8) #17
  store ptr %4, ptr %8, align 8, !tbaa !55
  call void @llvm.lifetime.start.p0(i64 8, ptr nonnull %9) #17
  store ptr %2, ptr %9, align 8, !tbaa !56
  call void @_ZN9b3HashMapI9b3HashPtrPN6bParse13bStructHandleEE6insertERKS0_RKS3_(ptr noundef nonnull align 8 dereferenceable(128) %23, ptr noundef nonnull align 8 dereferenceable(8) %8, ptr noundef nonnull align 8 dereferenceable(8) %9)
  call void @llvm.lifetime.end.p0(i64 8, ptr nonnull %9) #17
  call void @llvm.lifetime.end.p0(i64 8, ptr nonnull %8) #17
  %24 = getelementptr inbounds nuw i8, ptr %0, i64 248
  call void @_ZN20b3AlignedObjectArrayIN6bParse9bChunkIndEE9push_backERKS1_(ptr noundef nonnull align 8 dereferenceable(25) %24, ptr noundef nonnull align 8 dereferenceable(24) %7)
  call void @llvm.lifetime.end.p0(i64 24, ptr nonnull %7) #17
  ret void
}